target datalayout = "e-m:e-p270:32:32-p271:32:32-p272:64:64-i64:64-i128:128-f80:128-n8:16:32:64-S128"
target triple = "x86_64-pc-linux-gnu"

%struct.ARKodeARKStepMemRec = type { ptr, ptr, i32, i32, i32, i32, i32, i32, ptr, ptr, ptr, ptr, ptr, ptr, i32, i32, i32, i32, ptr, ptr, ptr, ptr, i32, ptr, double, double, double, double, i32, double, double, double, double, double, double, i32, i64, i32, i32, i32, ptr, ptr, ptr, ptr, ptr, ptr, i32, ptr, ptr, ptr, ptr, ptr, ptr, i32, i32, i64, i64, i64, i64, i64, ptr, ptr, i32, i32, i32, double, double, ptr, i32, ptr, ptr }
%struct.ARKodeMemRec = type { ptr, double, ptr, i32, i32, double, double, ptr, i32, double, ptr, i32, i32, ptr, ptr, i32, ptr, ptr, i32, ptr, ptr, ptr, ptr, ptr, ptr, ptr, ptr, ptr, ptr, ptr, ptr, ptr, ptr, ptr, i32, ptr, ptr, i32, ptr, i32, ptr, ptr, ptr, ptr, ptr, ptr, ptr, ptr, ptr, ptr, ptr, ptr, ptr, ptr, ptr, ptr, ptr, ptr, ptr, ptr, ptr, ptr, ptr, ptr, ptr, ptr, i32, ptr, ptr, ptr, ptr, ptr, ptr, ptr, i32, ptr, ptr, ptr, i32, ptr, ptr, ptr, ptr, ptr, ptr, ptr, i32, i32, i32, i32, double, double, double, double, double, double, double, double, double, double, i32, ptr, i64, i32, i32, i32, i32, i64, i64, i32, i64, i64, i64, i64, i64, i64, i64, double, double, double, double, double, i32, double, double, i32, i32, i32, i32, i32, i32, i32, i32, ptr, i32, ptr, ptr, ptr, ptr, i32, i32, i32 }

@__func__.arkStep_NlsResidual_MassTDep = private unnamed_addr constant [29 x i8] c"arkStep_NlsResidual_MassTDep\00", align 1

; Function Attrs: nounwind uwtable
define i32 @arkStep_NlsResidual_MassTDep(ptr noundef %0, ptr noundef %1, ptr noundef %2) #0 {
  %4 = alloca i32, align 4
  %5 = alloca ptr, align 8
  %6 = alloca ptr, align 8
  %7 = alloca ptr, align 8
  %8 = alloca ptr, align 8
  %9 = alloca ptr, align 8
  %10 = alloca i32, align 4
  %11 = alloca i32, align 4
  store ptr %0, ptr %5, align 8, !tbaa !34
  store ptr %1, ptr %6, align 8, !tbaa !34
  store ptr %2, ptr %7, align 8, !tbaa !36
  call void @llvm.lifetime.start.p0(i64 8, ptr %8) #4
  call void @llvm.lifetime.start.p0(i64 8, ptr %9) #4
  call void @llvm.lifetime.start.p0(i64 4, ptr %10) #4
  %12 = load ptr, ptr %7, align 8, !tbaa !36
  %13 = call i32 @arkStep_AccessARKODEStepMem(ptr noundef %12, ptr noundef @__func__.arkStep_NlsResidual_MassTDep, ptr noundef %8, ptr noundef %9)
  store i32 %13, ptr %10, align 4, !tbaa !10
  %14 = load i32, ptr %10, align 4, !tbaa !10
  %15 = icmp ne i32 %14, 0
  br i1 %15, label %16, label %18

16:                                               ; preds = %3
  %17 = load i32, ptr %10, align 4, !tbaa !10
  store i32 %17, ptr %4, align 4
  store i32 1, ptr %11, align 4
  br label %107

18:                                               ; preds = %3
  %19 = load ptr, ptr %9, align 8, !tbaa !20
  %20 = getelementptr inbounds nuw %struct.ARKodeARKStepMemRec, ptr %19, i32 0, i32 12
  %21 = load ptr, ptr %20, align 8, !tbaa !45
  %22 = load ptr, ptr %5, align 8, !tbaa !34
  %23 = load ptr, ptr %8, align 8, !tbaa !3
  %24 = getelementptr inbounds nuw %struct.ARKodeMemRec, ptr %23, i32 0, i32 75
  %25 = load ptr, ptr %24, align 8, !tbaa !46
  call void @N_VLinearSum(double noundef 1.000000e+00, ptr noundef %21, double noundef 1.000000e+00, ptr noundef %22, ptr noundef %25)
  %26 = load ptr, ptr %5, align 8, !tbaa !34
  %27 = load ptr, ptr %9, align 8, !tbaa !20
  %28 = getelementptr inbounds nuw %struct.ARKodeARKStepMemRec, ptr %27, i32 0, i32 11
  %29 = load ptr, ptr %28, align 8, !tbaa !58
  %30 = load ptr, ptr %9, align 8, !tbaa !20
  %31 = getelementptr inbounds nuw %struct.ARKodeARKStepMemRec, ptr %30, i32 0, i32 9
  %32 = load ptr, ptr %31, align 8, !tbaa !53
  %33 = load ptr, ptr %9, align 8, !tbaa !20
  %34 = getelementptr inbounds nuw %struct.ARKodeARKStepMemRec, ptr %33, i32 0, i32 16
  %35 = load i32, ptr %34, align 8, !tbaa !54
  %36 = sext i32 %35 to i64
  %37 = getelementptr inbounds ptr, ptr %32, i64 %36
  %38 = load ptr, ptr %37, align 8, !tbaa !34
  call void @N_VLinearSum(double noundef 1.000000e+00, ptr noundef %26, double noundef -1.000000e+00, ptr noundef %29, ptr noundef %38)
  %39 = load ptr, ptr %9, align 8, !tbaa !20
  %40 = getelementptr inbounds nuw %struct.ARKodeARKStepMemRec, ptr %39, i32 0, i32 49
  %41 = load ptr, ptr %40, align 8, !tbaa !60
  %42 = load ptr, ptr %8, align 8, !tbaa !3
  %43 = load ptr, ptr %9, align 8, !tbaa !20
  %44 = getelementptr inbounds nuw %struct.ARKodeARKStepMemRec, ptr %43, i32 0, i32 9
  %45 = load ptr, ptr %44, align 8, !tbaa !53
  %46 = load ptr, ptr %9, align 8, !tbaa !20
  %47 = getelementptr inbounds nuw %struct.ARKodeARKStepMemRec, ptr %46, i32 0, i32 16
  %48 = load i32, ptr %47, align 8, !tbaa !54
  %49 = sext i32 %48 to i64
  %50 = getelementptr inbounds ptr, ptr %45, i64 %49
  %51 = load ptr, ptr %50, align 8, !tbaa !34
  %52 = load ptr, ptr %6, align 8, !tbaa !34
  %53 = call i32 %41(ptr noundef %42, ptr noundef %51, ptr noundef %52)
  store i32 %53, ptr %10, align 4, !tbaa !10
  %54 = load i32, ptr %10, align 4, !tbaa !10
  %55 = icmp ne i32 %54, 0
  br i1 %55, label %56, label %57

56:                                               ; preds = %18
  store i32 -18, ptr %4, align 4
  store i32 1, ptr %11, align 4
  br label %107

57:                                               ; preds = %18
  %58 = load ptr, ptr %9, align 8, !tbaa !20
  %59 = getelementptr inbounds nuw %struct.ARKodeARKStepMemRec, ptr %58, i32 0, i32 23
  %60 = load ptr, ptr %59, align 8, !tbaa !33
  %61 = load ptr, ptr %8, align 8, !tbaa !3
  %62 = getelementptr inbounds nuw %struct.ARKodeMemRec, ptr %61, i32 0, i32 98
  %63 = load double, ptr %62, align 8, !tbaa !55
  %64 = load ptr, ptr %8, align 8, !tbaa !3
  %65 = getelementptr inbounds nuw %struct.ARKodeMemRec, ptr %64, i32 0, i32 75
  %66 = load ptr, ptr %65, align 8, !tbaa !46
  %67 = load ptr, ptr %9, align 8, !tbaa !20
  %68 = getelementptr inbounds nuw %struct.ARKodeARKStepMemRec, ptr %67, i32 0, i32 9
  %69 = load ptr, ptr %68, align 8, !tbaa !53
  %70 = load ptr, ptr %9, align 8, !tbaa !20
  %71 = getelementptr inbounds nuw %struct.ARKodeARKStepMemRec, ptr %70, i32 0, i32 16
  %72 = load i32, ptr %71, align 8, !tbaa !54
  %73 = sext i32 %72 to i64
  %74 = getelementptr inbounds ptr, ptr %69, i64 %73
  %75 = load ptr, ptr %74, align 8, !tbaa !34
  %76 = load ptr, ptr %8, align 8, !tbaa !3
  %77 = getelementptr inbounds nuw %struct.ARKodeMemRec, ptr %76, i32 0, i32 2
  %78 = load ptr, ptr %77, align 8, !tbaa !56
  %79 = call i32 %60(double noundef %63, ptr noundef %66, ptr noundef %75, ptr noundef %78)
  store i32 %79, ptr %10, align 4, !tbaa !10
  %80 = load ptr, ptr %9, align 8, !tbaa !20
  %81 = getelementptr inbounds nuw %struct.ARKodeARKStepMemRec, ptr %80, i32 0, i32 56
  %82 = load i64, ptr %81, align 8, !tbaa !57
  %83 = add nsw i64 %82, 1
  store i64 %83, ptr %81, align 8, !tbaa !57
  %84 = load i32, ptr %10, align 4, !tbaa !10
  %85 = icmp slt i32 %84, 0
  br i1 %85, label %86, label %87

86:                                               ; preds = %57
  store i32 -8, ptr %4, align 4
  store i32 1, ptr %11, align 4
  br label %107

87:                                               ; preds = %57
  %88 = load i32, ptr %10, align 4, !tbaa !10
  %89 = icmp sgt i32 %88, 0
  br i1 %89, label %90, label %91

90:                                               ; preds = %87
  store i32 9, ptr %4, align 4
  store i32 1, ptr %11, align 4
  br label %107

91:                                               ; preds = %87
  %92 = load ptr, ptr %6, align 8, !tbaa !34
  %93 = load ptr, ptr %9, align 8, !tbaa !20
  %94 = getelementptr inbounds nuw %struct.ARKodeARKStepMemRec, ptr %93, i32 0, i32 24
  %95 = load double, ptr %94, align 8, !tbaa !59
  %96 = fneg double %95
  %97 = load ptr, ptr %9, align 8, !tbaa !20
  %98 = getelementptr inbounds nuw %struct.ARKodeARKStepMemRec, ptr %97, i32 0, i32 9
  %99 = load ptr, ptr %98, align 8, !tbaa !53
  %100 = load ptr, ptr %9, align 8, !tbaa !20
  %101 = getelementptr inbounds nuw %struct.ARKodeARKStepMemRec, ptr %100, i32 0, i32 16
  %102 = load i32, ptr %101, align 8, !tbaa !54
  %103 = sext i32 %102 to i64
  %104 = getelementptr inbounds ptr, ptr %99, i64 %103
  %105 = load ptr, ptr %104, align 8, !tbaa !34
  %106 = load ptr, ptr %6, align 8, !tbaa !34
  call void @N_VLinearSum(double noundef 1.000000e+00, ptr noundef %92, double noundef %96, ptr noundef %105, ptr noundef %106)
  store i32 0, ptr %4, align 4
  store i32 1, ptr %11, align 4
  br label %107

107:                                              ; preds = %91, %90, %86, %56, %16
  call void @llvm.lifetime.end.p0(i64 4, ptr %10) #4
  call void @llvm.lifetime.end.p0(i64 8, ptr %9) #4
  call void @llvm.lifetime.end.p0(i64 8, ptr %8) #4
  %108 = load i32, ptr %4, align 4
  ret i32 %108
}