; Function Attrs: nounwind uwtable
define i32 @arkStep_NlsResidual_MassTDep(ptr noundef %0, ptr noundef %1, ptr noundef %2) #0 {
  %4 = alloca ptr, align 8
  %5 = alloca ptr, align 8
  call void @llvm.lifetime.start.p0(i64 8, ptr nonnull %4) #5
  call void @llvm.lifetime.start.p0(i64 8, ptr nonnull %5) #5
  %6 = call i32 @arkStep_AccessARKODEStepMem(ptr noundef %2, ptr noundef nonnull @__func__.arkStep_NlsResidual_MassTDep, ptr noundef nonnull %4, ptr noundef nonnull %5) #5
  %.not = icmp eq i32 %6, 0
  br i1 %.not, label %7, label %72

7:                                                ; preds = %3
  %8 = load ptr, ptr %5, align 8, !tbaa !14
  %9 = getelementptr inbounds nuw i8, ptr %8, i64 72
  %10 = load ptr, ptr %9, align 8, !tbaa !39
  %11 = load ptr, ptr %4, align 8, !tbaa !40
  %12 = getelementptr inbounds nuw i8, ptr %11, i64 584
  %13 = load ptr, ptr %12, align 8, !tbaa !42
  call void @N_VLinearSum(double noundef 1.000000e+00, ptr noundef %10, double noundef 1.000000e+00, ptr noundef %0, ptr noundef %13) #5
  %14 = load ptr, ptr %5, align 8, !tbaa !14
  %15 = getelementptr inbounds nuw i8, ptr %14, i64 64
  %16 = load ptr, ptr %15, align 8, !tbaa !56
  %17 = getelementptr inbounds nuw i8, ptr %14, i64 48
  %18 = load ptr, ptr %17, align 8, !tbaa !49
  %19 = getelementptr inbounds nuw i8, ptr %14, i64 96
  %20 = load i32, ptr %19, align 8, !tbaa !50
  %21 = sext i32 %20 to i64
  %22 = getelementptr inbounds ptr, ptr %18, i64 %21
  %23 = load ptr, ptr %22, align 8, !tbaa !51
  call void @N_VLinearSum(double noundef 1.000000e+00, ptr noundef %0, double noundef -1.000000e+00, ptr noundef %16, ptr noundef %23) #5
  %24 = load ptr, ptr %5, align 8, !tbaa !14
  %25 = getelementptr inbounds nuw i8, ptr %24, i64 344
  %26 = load ptr, ptr %25, align 8, !tbaa !58
  %27 = load ptr, ptr %4, align 8, !tbaa !40
  %28 = getelementptr inbounds nuw i8, ptr %24, i64 48
  %29 = load ptr, ptr %28, align 8, !tbaa !49
  %30 = getelementptr inbounds nuw i8, ptr %24, i64 96
  %31 = load i32, ptr %30, align 8, !tbaa !50
  %32 = sext i32 %31 to i64
  %33 = getelementptr inbounds ptr, ptr %29, i64 %32
  %34 = load ptr, ptr %33, align 8, !tbaa !51
  %35 = call i32 %26(ptr noundef %27, ptr noundef %34, ptr noundef %1) #5
  %.not13 = icmp eq i32 %35, 0
  br i1 %.not13, label %36, label %72

36:                                               ; preds = %7
  %37 = load ptr, ptr %5, align 8, !tbaa !14
  %38 = getelementptr inbounds nuw i8, ptr %37, i64 144
  %39 = load ptr, ptr %38, align 8, !tbaa !29
  %40 = load ptr, ptr %4, align 8, !tbaa !40
  %41 = getelementptr inbounds nuw i8, ptr %40, i64 752
  %42 = load double, ptr %41, align 8, !tbaa !52
  %43 = getelementptr inbounds nuw i8, ptr %40, i64 584
  %44 = load ptr, ptr %43, align 8, !tbaa !42
  %45 = getelementptr inbounds nuw i8, ptr %37, i64 48
  %46 = load ptr, ptr %45, align 8, !tbaa !49
  %47 = getelementptr inbounds nuw i8, ptr %37, i64 96
  %48 = load i32, ptr %47, align 8, !tbaa !50
  %49 = sext i32 %48 to i64
  %50 = getelementptr inbounds ptr, ptr %46, i64 %49
  %51 = load ptr, ptr %50, align 8, !tbaa !51
  %52 = getelementptr inbounds nuw i8, ptr %40, i64 16
  %53 = load ptr, ptr %52, align 8, !tbaa !53
  %54 = call i32 %39(double noundef %42, ptr noundef %44, ptr noundef %51, ptr noundef %53) #5
  %55 = load ptr, ptr %5, align 8, !tbaa !14
  %56 = getelementptr inbounds nuw i8, ptr %55, i64 392
  %57 = load i64, ptr %56, align 8, !tbaa !54
  %58 = add nsw i64 %57, 1
  store i64 %58, ptr %56, align 8, !tbaa !54
  %59 = icmp slt i32 %54, 0
  br i1 %59, label %72, label %60

60:                                               ; preds = %36
  %.not14 = icmp eq i32 %54, 0
  br i1 %.not14, label %61, label %72

61:                                               ; preds = %60
  %62 = getelementptr inbounds nuw i8, ptr %55, i64 152
  %63 = load double, ptr %62, align 8, !tbaa !57
  %64 = fneg double %63
  %65 = getelementptr inbounds nuw i8, ptr %55, i64 48
  %66 = load ptr, ptr %65, align 8, !tbaa !49
  %67 = getelementptr inbounds nuw i8, ptr %55, i64 96
  %68 = load i32, ptr %67, align 8, !tbaa !50
  %69 = sext i32 %68 to i64
  %70 = getelementptr inbounds ptr, ptr %66, i64 %69
  %71 = load ptr, ptr %70, align 8, !tbaa !51
  call void @N_VLinearSum(double noundef 1.000000e+00, ptr noundef %1, double noundef %64, ptr noundef %71, ptr noundef %1) #5
  br label %72

72:                                               ; preds = %60, %36, %7, %3, %61
  %.0 = phi i32 [ 0, %61 ], [ %6, %3 ], [ -18, %7 ], [ -8, %36 ], [ 9, %60 ]
  call void @llvm.lifetime.end.p0(i64 8, ptr nonnull %5) #5
  call void @llvm.lifetime.end.p0(i64 8, ptr nonnull %4) #5
  ret i32 %.0
}